
Merging program properties

Removed property 0xc0000002 to merge _string.o (0x3) and _hal.o (not found)
Removed property 0xc0000002 to merge _string.o (not found) and hal.o (0x3)
Removed property 0xc0000002 to merge _string.o (not found) and vgastr.o (0x3)
Removed property 0xc0000002 to merge _string.o (not found) and global.o (0x3)
Removed property 0xc0000002 to merge _string.o (not found) and platform.o (0x3)
Removed property 0xc0000002 to merge _string.o (not found) and gdt.o (0x3)
Removed property 0xc0000002 to merge _string.o (not found) and idt.o (0x3)
Removed property 0xc0000002 to merge _string.o (not found) and tss.o (0x3)
Removed property 0xc0000002 to merge _string.o (not found) and i8259.o (0x3)
Removed property 0xc0000002 to merge _string.o (not found) and interrupt.o (0x3)
Removed property 0xc0000002 to merge _string.o (not found) and spinlock.o (0x3)
Removed property 0xc0000002 to merge _string.o (not found) and remmu.o (0x3)
Removed property 0xc0000002 to merge _string.o (not found) and mmu.o (0x3)
Removed property 0xc0000002 to merge _string.o (not found) and memview.o (0x3)
Removed property 0xc0000002 to merge _string.o (not found) and mempage.o (0x3)
Removed property 0xc0000002 to merge _string.o (not found) and memtable.o (0x3)
Removed property 0xc0000002 to merge _string.o (not found) and memarea.o (0x3)
Removed property 0xc0000002 to merge _string.o (not found) and memobject.o (0x3)
Removed property 0xc0000002 to merge _string.o (not found) and memmgr.o (0x3)
Removed property 0xc0000002 to merge _string.o (not found) and memapi.o (0x3)
Removed property 0xc0000002 to merge _string.o (not found) and kernel.o (0x3)
Removed property 0xc0000002 to merge _string.o (not found) and knlglobal.o (0x3)
Removed property 0xc0000002 to merge _string.o (not found) and kvmarea.o (0x3)
Removed property 0xc0000002 to merge _string.o (not found) and kvmbox.o (0x3)
Removed property 0xc0000002 to merge _string.o (not found) and kvmprocess.o (0x3)
Removed property 0xc0000002 to merge _string.o (not found) and mempool.o (0x3)
Removed property 0xc0000002 to merge _string.o (not found) and objnode.o (0x3)
Removed property 0xc0000002 to merge _string.o (not found) and thread.o (0x3)
Removed property 0xc0000002 to merge _string.o (not found) and schedule.o (0x3)
Removed property 0xc0000002 to merge _string.o (not found) and waitlist.o (0x3)
Removed property 0xc0000002 to merge _string.o (not found) and idle.o (0x3)
Removed property 0xc0000002 to merge _string.o (not found) and sem.o (0x3)
Removed property 0xc0000002 to merge _string.o (not found) and device.o (0x3)
Removed property 0xc0000002 to merge _string.o (not found) and krlinterrupt.o (0x3)
Removed property 0xc0000002 to merge _string.o (not found) and systime.o (0x3)
Removed property 0xc0000002 to merge _string.o (not found) and syscall.o (0x3)
Removed property 0xc0000002 to merge _string.o (not found) and service.o (0x3)
Removed property 0xc0000002 to merge _string.o (not found) and drvtick.o (0x3)
Removed property 0xc0000002 to merge _string.o (not found) and drvrfs.o (0x3)
Removed property 0xc0000002 to merge _string.o (not found) and drvhhd.o (0x3)
Removed property 0xc0000002 to merge _string.o (not found) and drvkeyboard.o (0x3)
Removed property 0xc0000002 to merge _string.o (not found) and libassert.o (0x3)
Removed property 0xc0000002 to merge _string.o (not found) and libctype.o (0x3)
Removed property 0xc0000002 to merge _string.o (not found) and liberrno.o (0x3)
Removed property 0xc0000002 to merge _string.o (not found) and libfloat.o (0x3)
Removed property 0xc0000002 to merge _string.o (not found) and liblimits.o (0x3)
Removed property 0xc0000002 to merge _string.o (not found) and liblocale.o (0x3)
Removed property 0xc0000002 to merge _string.o (not found) and libmath.o (0x3)
Removed property 0xc0000002 to merge _string.o (not found) and libsetjmp.o (0x3)
Removed property 0xc0000002 to merge _string.o (not found) and libsignal.o (0x3)
Removed property 0xc0000002 to merge _string.o (not found) and libstdarg.o (0x3)
Removed property 0xc0000002 to merge _string.o (not found) and libstddef.o (0x3)
Removed property 0xc0000002 to merge _string.o (not found) and libstdio.o (0x3)
Removed property 0xc0000002 to merge _string.o (not found) and libstdlib.o (0x3)
Removed property 0xc0000002 to merge _string.o (not found) and libstring.o (0x3)
Removed property 0xc0000002 to merge _string.o (not found) and libtime.o (0x3)
Removed property 0xc0000002 to merge _string.o (not found) and libitime.o (0x3)

Discarded input sections

 .note.gnu.property
                0x0000000000000000       0x20 _string.o
 .note.gnu.property
                0x0000000000000000       0x20 _stdio.o
 .note.gnu.property
                0x0000000000000000       0x20 hal.o
 .note.gnu.property
                0x0000000000000000       0x20 vgastr.o
 .note.gnu.property
                0x0000000000000000       0x20 global.o
 .note.gnu.property
                0x0000000000000000       0x20 platform.o
 .note.gnu.property
                0x0000000000000000       0x20 gdt.o
 .note.gnu.property
                0x0000000000000000       0x20 idt.o
 .note.gnu.property
                0x0000000000000000       0x20 tss.o
 .note.gnu.property
                0x0000000000000000       0x20 i8259.o
 .note.gnu.property
                0x0000000000000000       0x20 interrupt.o
 .note.gnu.property
                0x0000000000000000       0x20 spinlock.o
 .note.gnu.property
                0x0000000000000000       0x20 remmu.o
 .note.gnu.property
                0x0000000000000000       0x20 mmu.o
 .note.gnu.property
                0x0000000000000000       0x20 memview.o
 .note.gnu.property
                0x0000000000000000       0x20 mempage.o
 .note.gnu.property
                0x0000000000000000       0x20 memtable.o
 .note.gnu.property
                0x0000000000000000       0x20 memarea.o
 .note.gnu.property
                0x0000000000000000       0x20 memobject.o
 .note.gnu.property
                0x0000000000000000       0x20 memmgr.o
 .note.gnu.property
                0x0000000000000000       0x20 memapi.o
 .note.gnu.property
                0x0000000000000000       0x20 kernel.o
 .note.gnu.property
                0x0000000000000000       0x20 knlglobal.o
 .note.gnu.property
                0x0000000000000000       0x20 kvmarea.o
 .note.gnu.property
                0x0000000000000000       0x20 kvmbox.o
 .note.gnu.property
                0x0000000000000000       0x20 kvmprocess.o
 .note.gnu.property
                0x0000000000000000       0x20 mempool.o
 .note.gnu.property
                0x0000000000000000       0x20 objnode.o
 .note.gnu.property
                0x0000000000000000       0x20 thread.o
 .note.gnu.property
                0x0000000000000000       0x20 schedule.o
 .note.gnu.property
                0x0000000000000000       0x20 waitlist.o
 .note.gnu.property
                0x0000000000000000       0x20 idle.o
 .note.gnu.property
                0x0000000000000000       0x20 sem.o
 .note.gnu.property
                0x0000000000000000       0x20 device.o
 .note.gnu.property
                0x0000000000000000       0x20 krlinterrupt.o
 .note.gnu.property
                0x0000000000000000       0x20 systime.o
 .note.gnu.property
                0x0000000000000000       0x20 syscall.o
 .note.gnu.property
                0x0000000000000000       0x20 service.o
 .note.gnu.property
                0x0000000000000000       0x20 drvtick.o
 .note.gnu.property
                0x0000000000000000       0x20 drvrfs.o
 .note.gnu.property
                0x0000000000000000       0x20 drvhhd.o
 .note.gnu.property
                0x0000000000000000       0x20 drvkeyboard.o
 .note.gnu.property
                0x0000000000000000       0x20 libassert.o
 .note.gnu.property
                0x0000000000000000       0x20 libctype.o
 .note.gnu.property
                0x0000000000000000       0x20 liberrno.o
 .note.gnu.property
                0x0000000000000000       0x20 libfloat.o
 .note.gnu.property
                0x0000000000000000       0x20 liblimits.o
 .note.gnu.property
                0x0000000000000000       0x20 liblocale.o
 .note.gnu.property
                0x0000000000000000       0x20 libmath.o
 .note.gnu.property
                0x0000000000000000       0x20 libsetjmp.o
 .note.gnu.property
                0x0000000000000000       0x20 libsignal.o
 .note.gnu.property
                0x0000000000000000       0x20 libstdarg.o
 .note.gnu.property
                0x0000000000000000       0x20 libstddef.o
 .note.gnu.property
                0x0000000000000000       0x20 libstdio.o
 .note.gnu.property
                0x0000000000000000       0x20 libstdlib.o
 .note.gnu.property
                0x0000000000000000       0x20 libstring.o
 .note.gnu.property
                0x0000000000000000       0x20 libtime.o
 .note.gnu.property
                0x0000000000000000       0x20 libitime.o

Memory Configuration

Name             Origin             Length             Attributes
*default*        0x0000000000000000 0xffffffffffffffff

Linker script and memory map

                0x0000000002000000                LINEAR_ADDRESS = 0x2000000
                0xffff800000000000                VIRTUAL_ADDRESS = 0xffff800000000000
                0x0000000002000000                . = LINEAR_ADDRESS
                0xffff800002000000                __start_kernel = (. + VIRTUAL_ADDRESS)
                0x0000000002000000                __begin_start_text = .

.start.text     0x0000000002000000       0xbe
 *(.start.text)
 .start.text    0x0000000002000000       0xbe _hal.o
                0x0000000002000000                _start
                0x00000000020000be                __end_start_text = .
                0x00000000020000be                __begin_start_data = .

.start.data     0x00000000020000c0       0x32
 *(.start.data)
 .start.data    0x00000000020000c0       0x32 _hal.o
                0x00000000020000f2                __end_start_data = .
                0x00000000020000f2                __begin_start_data_pml4 = .

.start.data.pml4
 *(.start.data.pml4)
                0x00000000020000f2                __end_start_data_pml4 = .
                0xffff8000020000f2                . = (. + VIRTUAL_ADDRESS)
                0xffff8000020000f2                __begin_entry64_text = .

.entry64.text
 *(.entry64.text)
                0xffff8000020000f2                __end_entry64_text = .
                0xffff8000020000f2                __begin_hwint_text = .

.hwint.text     0xffff8000020000f4     0x1bf9 load address 0x00000000020000f4
 *(.hwint.text)
 *fill*         0xffff8000020000f4        0xc 
 .hwint.text    0xffff800002000100     0x1bed _isr.o
                0xffff800002000100                exc_divide_error
                0xffff800002000190                exc_debug_exception
                0xffff800002000220                exc_nmi
                0xffff8000020002b0                exc_breakpoint_exception
                0xffff800002000340                exc_overflow
                0xffff8000020003d0                exc_bounds_check
                0xffff800002000460                exc_inval_opcode
                0xffff8000020004f0                exc_copr_not_available
                0xffff800002000580                exc_double_fault
                0xffff800002000610                exc_copr_seg_overrun
                0xffff8000020006a0                exc_inval_tss
                0xffff800002000730                exc_segment_not_exist
                0xffff8000020007c0                exc_stack_exception
                0xffff800002000850                exc_general_protection
                0xffff8000020008e0                exc_page_fault
                0xffff800002000970                exc_copr_error
                0xffff800002000a00                exc_alignment_check
                0xffff800002000a90                exc_machine_check
                0xffff800002000b20                exc_simd_fault
                0xffff800002000bb0                hxi_exc_general_intpfault
                0xffff800002000c40                hxi_hwint00
                0xffff800002000cc0                hxi_hwint01
                0xffff800002000d40                hxi_hwint02
                0xffff800002000dc0                hxi_hwint03
                0xffff800002000e40                hxi_hwint04
                0xffff800002000ec0                hxi_hwint05
                0xffff800002000f40                hxi_hwint06
                0xffff800002000fc0                hxi_hwint07
                0xffff800002001040                hxi_hwint08
                0xffff8000020010c0                hxi_hwint09
                0xffff800002001140                hxi_hwint10
                0xffff8000020011c0                hxi_hwint11
                0xffff800002001240                hxi_hwint12
                0xffff8000020012c0                hxi_hwint13
                0xffff800002001340                hxi_hwint14
                0xffff8000020013c0                hxi_hwint15
                0xffff800002001440                hxi_hwint16
                0xffff8000020014c0                hxi_hwint17
                0xffff800002001540                hxi_hwint18
                0xffff8000020015c0                hxi_hwint19
                0xffff800002001640                hxi_hwint20
                0xffff8000020016c0                hxi_hwint21
                0xffff800002001740                hxi_hwint22
                0xffff8000020017c0                hxi_hwint23
                0xffff800002001840                hxi_apic_ipi_schedul
                0xffff8000020018c0                hxi_apic_svr
                0xffff800002001940                hxi_apic_timer
                0xffff8000020019c0                hxi_apic_thermal
                0xffff800002001a40                hxi_apic_performonitor
                0xffff800002001ac0                hxi_apic_lint0
                0xffff800002001b40                hxi_apic_lint1
                0xffff800002001bc0                hxi_apic_error
                0xffff800002001c40                exi_sys_call
                0xffff800002001cc0                asm_ret_from_user_mode
                0xffff800002001ced                __end_hwint_text = .
                0xffff800002001ced                __begin_sirq_text = .

.sirq.text
 *(.sirq.sirq)
                0xffff800002001ced                __end_sirq_text = .
                0xffff800002001ced                __begin_scall_text = .

.scall.text
 *(.scall.text)
                0xffff800002001ced                __end_scall_text = .
                0xffff800002001ced                __begin_sched_text = .

.sched.text
 *(.sched.text)
                0xffff800002001ced                __end_sched_text = .
                0xffff800002001ced                __begin_fs_text = .

.fs.text
 *(.fs.text)
                0xffff800002001ced                __end_fs_text = .
                0xffff800002001ced                __begin_drive_text = .

.drive.text
 *(.drive.text)
                0xffff800002001ced                __end_drive_text = .
                0xffff800002001ced                __begin_text = .

.text           0xffff800002001cf0     0xd2f1 load address 0x0000000002001cf0
 *(.text)
 .text          0xffff800002001cf0      0x141 _string.o
                0xffff800002001cf0                strcmp
                0xffff800002001d40                strcpy
                0xffff800002001d80                strlen
                0xffff800002001db0                strcat
                0xffff800002001e00                string_test_main
 *fill*         0xffff800002001e31        0xf 
 .text          0xffff800002001e40      0xa76 _stdio.o
                0xffff800002001e40                die
                0xffff800002001ec0                stdio_test_main
                0xffff800002002550                sscank
                0xffff800002002610                scank
                0xffff8000020026f0                sprintk
                0xffff8000020027b0                printk
 *fill*         0xffff8000020028b6        0xa 
 .text          0xffff8000020028c0      0x17d hal.o
                0xffff8000020028c0                hal_entry
 *fill*         0xffff800002002a3d        0x3 
 .text          0xffff800002002a40      0x503 vgastr.o
                0xffff800002002a40                init_cursor
                0xffff800002002a70                close_cursor
                0xffff800002002a90                open_cursor
                0xffff800002002aa0                set_cursor
                0xffff800002002b10                clear_screen
                0xffff800002002b90                scroll_screen
                0xffff800002002c00                read_string
                0xffff800002002c10                write_string
 .text          0xffff800002002f43        0x0 global.o
 *fill*         0xffff800002002f43        0xd 
 .text          0xffff800002002f50      0x407 platform.o
                0xffff800002002f50                platform_init
                0xffff800002002fc0                platform_display
 *fill*         0xffff800002003357        0x9 
 .text          0xffff800002003360      0x17c gdt.o
                0xffff800002003360                gdt_init
 *fill*         0xffff8000020034dc        0x4 
 .text          0xffff8000020034e0      0xdb2 idt.o
                0xffff8000020034e0                idt_init
 *fill*         0xffff800002004292        0xe 
 .text          0xffff8000020042a0       0x57 tss.o
                0xffff8000020042a0                tss_t_init
                0xffff8000020042b0                set_tss
 *fill*         0xffff8000020042f7        0x9 
 .text          0xffff800002004300      0x1da i8259.o
                0xffff800002004300                i8259_init
                0xffff800002004360                i8259_display
                0xffff800002004370                i8259_send_eoi
                0xffff800002004390                i8259_enable_line
                0xffff8000020043f0                i8259_disable_line
                0xffff800002004450                i8259_save_disableline
                0xffff8000020044b0                i8259_rest_enableline
 *fill*         0xffff8000020044da        0x6 
 .text          0xffff8000020044e0      0x5ac interrupt.o
                0xffff8000020044e0                interrupt_init
                0xffff800002004640                interrupt_display
                0xffff800002004650                hal_syscal_allocator
                0xffff8000020046a0                hal_fault_allocator
                0xffff800002004780                hal_hwint_allocator
                0xffff8000020048d0                get_intFault
                0xffff800002004920                intservice_t_init
                0xffff800002004960                add_intservice
                0xffff800002004a10                hal_enable_intline
                0xffff800002004a50                hal_disable_intline
 *fill*         0xffff800002004a8c        0x4 
 .text          0xffff800002004a90       0xdb spinlock.o
                0xffff800002004a90                spinlock_init
                0xffff800002004aa0                spinlock_lock
                0xffff800002004ac0                spinlock_unlock
                0xffff800002004ad0                spinlock_lock_cli
                0xffff800002004af0                spinlock_lock_saveflg_cli
                0xffff800002004b20                spinlock_unlock_sti
                0xffff800002004b40                spinlock_unlock_restflg_sti
 *fill*         0xffff800002004b6b        0x5 
 .text          0xffff800002004b70      0x1ef remmu.o
                0xffff800002004b70                remmu_init
                0xffff800002004c80                remmu_display
 *fill*         0xffff800002004d5f        0x1 
 .text          0xffff800002004d60     0x12e1 mmu.o
                0xffff800002005210                mmu_transform
                0xffff800002005ad0                mmu_untransform
                0xffff800002005cc0                mmu_clean
                0xffff800002005d60                mmu_load
                0xffff800002005de0                mmu_refresh
                0xffff800002005df0                mmu_init
                0xffff800002006010                mmu_test_main
 *fill*         0xffff800002006041        0xf 
 .text          0xffff800002006050      0x304 memview.o
                0xffff800002006050                memview_init
                0xffff800002006210                memview_display
 *fill*         0xffff800002006354        0xc 
 .text          0xffff800002006360      0x626 mempage.o
                0xffff800002006450                mempage_init
                0xffff8000020066c0                mempage_occupy
                0xffff800002006740                mempage_test_main
                0xffff800002006780                mempage_display
 *fill*         0xffff800002006986        0xa 
 .text          0xffff800002006990      0x581 memtable.o
                0xffff800002006a50                memtable_init
                0xffff800002006bb0                mount_table
                0xffff800002006e50                memlists_tostring
                0xffff800002006ee0                memlist_test_main
 *fill*         0xffff800002006f11        0xf 
 .text          0xffff800002006f20      0x369 memarea.o
                0xffff800002006f20                memarea_init
                0xffff800002007100                mount_pages
                0xffff800002007280                memarea_test_main
 *fill*         0xffff800002007289        0x7 
 .text          0xffff800002007290      0xa79 memobject.o
                0xffff800002007320                memobject_init
                0xffff8000020073b0                mobj_new
                0xffff800002007950                mobj_delete
                0xffff800002007d00                memobject_test_main
 *fill*         0xffff800002007d09        0x7 
 .text          0xffff800002007d10      0x1b9 memmgr.o
                0xffff800002007d10                memmgr_init
                0xffff800002007ec0                memmgr_display
 *fill*         0xffff800002007ec9        0x7 
 .text          0xffff800002007ed0      0x889 memapi.o
                0xffff8000020081c0                get_order
                0xffff800002008210                mem_divide
                0xffff8000020082a0                mem_divide_apps
                0xffff8000020083d0                mem_merge
                0xffff800002008750                memapi_test_main
 *fill*         0xffff800002008759        0x7 
 .text          0xffff800002008760       0xca kernel.o
                0xffff800002008760                kernel_entry
 .text          0xffff80000200882a        0x0 knlglobal.o
 *fill*         0xffff80000200882a        0x6 
 .text          0xffff800002008830      0x4f1 kvmarea.o
                0xffff800002008830                kvmarea_init
                0xffff800002008840                kvmArea_init
                0xffff8000020088c0                kvmSpace_init
                0xffff800002008960                new_kvmArea
                0xffff800002008a10                del_kvmArea
                0xffff800002008a60                new_kvmSpace
                0xffff800002008b30                del_kvmSpace
                0xffff800002008b80                init_userspace_kvmspace
 *fill*         0xffff800002008d21        0xf 
 .text          0xffff800002008d30      0x355 kvmbox.o
                0xffff800002008d30                kvmBox_init
                0xffff800002008dc0                kvmBoxs_init
                0xffff800002008e60                new_kvmBox
                0xffff800002008f20                del_kvmBox
                0xffff800002008f70                new_kvmBoxs
                0xffff800002009040                del_kvmBoxs
 *fill*         0xffff800002009085        0xb 
 .text          0xffff800002009090     0x10b0 kvmprocess.o
                0xffff800002009610                kvm_init
                0xffff8000020096a0                kvmProcess_init
                0xffff800002009810                kvm_new
                0xffff800002009920                kvm_delete
                0xffff800002009980                krluserspace_accessfailed
                0xffff800002009fb0                kvmProcess_test_main
 .text          0xffff80000200a140      0x3a9 mempool.o
                0xffff80000200a140                mempool_new
                0xffff80000200a2b0                mempool_delete
                0xffff80000200a460                mempool_init
                0xffff80000200a4e0                mempool_test_main
 *fill*         0xffff80000200a4e9        0x7 
 .text          0xffff80000200a4f0      0x28b objnode.o
                0xffff80000200a4f0                objnode_t_init
                0xffff80000200a600                objnode_new
                0xffff80000200a670                objnode_delete
                0xffff80000200a700                device_objnode_param
 *fill*         0xffff80000200a77b        0x5 
 .text          0xffff80000200a780      0x53b thread.o
                0xffff80000200a780                new_thread
                0xffff80000200a900                del_thread
                0xffff80000200a940                krnl_stack_init
                0xffff80000200a9e0                krlnew_thread
 *fill*         0xffff80000200acbb        0x5 
 .text          0xffff80000200acc0      0xb10 schedule.o
                0xffff80000200ad50                schedule_init
                0xffff80000200ae70                first_sched
                0xffff80000200aeb0                __to_new_context
                0xffff80000200af50                schedule_set_flag
                0xffff80000200afd0                schedule_get_flag
                0xffff80000200b010                schedule_set_flag_ex
                0xffff80000200b0a0                krl_schedule
                0xffff80000200b2a0                schedule_add
                0xffff80000200b3a0                schedule_wait
                0xffff80000200b4e0                schedule_up
                0xffff80000200b660                schedule_inc_tick
                0xffff80000200b710                schedule_check
 .text          0xffff80000200b7d0      0x2a6 waitlist.o
                0xffff80000200b7d0                waitlist_t_init
                0xffff80000200b830                waitlist_wait
                0xffff80000200b860                waitlist_up
                0xffff80000200b8b0                waitlist_allup
                0xffff80000200b950                waitlist_add
                0xffff80000200b9e0                waitlist_del
 *fill*         0xffff80000200ba76        0xa 
 .text          0xffff80000200ba80      0x606 idle.o
                0xffff80000200bbb0                thread_a_main
                0xffff80000200bc50                thread_b_main
                0xffff80000200bcf0                thread_c_main
                0xffff80000200bd90                init_abc_thread
                0xffff80000200bf10                idle_init
 *fill*         0xffff80000200c086        0xa 
 .text          0xffff80000200c090      0x256 sem.o
                0xffff80000200c090                sem_t_init
                0xffff80000200c0f0                sem_set
                0xffff80000200c160                sem_down
                0xffff80000200c210                sem_up
 *fill*         0xffff80000200c2e6        0xa 
 .text          0xffff80000200c2f0      0x972 device.o
                0xffff80000200c2f0                device_init
                0xffff80000200c390                driver_new
                0xffff80000200c4b0                driver_delete
                0xffff80000200c540                device_new
                0xffff80000200c6a0                device_delete
                0xffff80000200c740                driver_init
                0xffff80000200c8a0                device_add_driver
                0xffff80000200c910                device_register
                0xffff80000200ca40                install_callback
                0xffff80000200caf0                device_call_driver
                0xffff80000200cb30                device_io
                0xffff80000200cb70                device_inc_devcount
                0xffff80000200cbe0                device_dec_devcount
 *fill*         0xffff80000200cc62        0xe 
 .text          0xffff80000200cc70      0x12e krlinterrupt.o
                0xffff80000200cc70                add_irqhandle
                0xffff80000200cd80                enable_intline
                0xffff80000200cd90                disable_intline
 *fill*         0xffff80000200cd9e        0x2 
 .text          0xffff80000200cda0      0x2c9 systime.o
                0xffff80000200cda0                systime_init
                0xffff80000200ce20                systime_update
                0xffff80000200cf40                systime_set
                0xffff80000200cf50                systime_tostring
                0xffff80000200cfb0                sve_time
 .text          0xffff80000200d069        0x0 syscall.o
 *fill*         0xffff80000200d069        0x7 
 .text          0xffff80000200d070       0x48 service.o
                0xffff80000200d070                krlservice
 *fill*         0xffff80000200d0b8        0x8 
 .text          0xffff80000200d0c0      0x3db drvtick.o
                0xffff80000200d0c0                tick_read
                0xffff80000200d0d0                tick_open
                0xffff80000200d110                tick_close
                0xffff80000200d150                tick_handle
                0xffff80000200d1a0                tick_flush
                0xffff80000200d1b0                tick_shutdown
                0xffff80000200d1c0                tick_write
                0xffff80000200d1d0                tick_lseek
                0xffff80000200d1e0                tick_ioctrl
                0xffff80000200d1f0                tick_dev_start
                0xffff80000200d200                tick_dev_stop
                0xffff80000200d210                tick_set_powerstus
                0xffff80000200d220                tick_enum_dev
                0xffff80000200d230                drvtick_entry
                0xffff80000200d490                drvtick_exit
 *fill*         0xffff80000200d49b        0x5 
 .text          0xffff80000200d4a0     0x126b drvrfs.o
                0xffff80000200d4a0                rfs_lseek
                0xffff80000200d510                rfs_flush
                0xffff80000200d520                rfs_shutdown
                0xffff80000200d530                rfs_dev_start
                0xffff80000200d540                rfs_dev_stop
                0xffff80000200d550                rfs_set_powerstus
                0xffff80000200d560                rfs_enum_dev
                0xffff80000200d570                rfs_close
                0xffff80000200d780                new_devext
                0xffff80000200d830                rfs_new_file
                0xffff80000200d9a0                rfs_open
                0xffff80000200da10                rfs_delete_file
                0xffff80000200db70                rfs_ioctrl
                0xffff80000200dc10                rfs_open_file
                0xffff80000200dc50                rfs_close_file
                0xffff80000200dc80                rfs_read_file
                0xffff80000200dda0                rfs_read
                0xffff80000200ddd0                rfs_write_file
                0xffff80000200df00                rfs_write
                0xffff80000200df30                rfs_handle
                0xffff80000200df40                drvrfs_entry
                0xffff80000200e1b0                drvrfs_exit
                0xffff80000200e1c0                drvrfc_test_main
 *fill*         0xffff80000200e70b        0x5 
 .text          0xffff80000200e710      0x2ab drvhhd.o
                0xffff80000200e710                hhd_open
                0xffff80000200e720                hhd_flush
                0xffff80000200e730                hhd_shutdown
                0xffff80000200e740                hhd_close
                0xffff80000200e750                hhd_read
                0xffff80000200e760                hhd_write
                0xffff80000200e770                hhd_lseek
                0xffff80000200e780                hhd_ioctrl
                0xffff80000200e790                hhd_dev_start
                0xffff80000200e7a0                hhd_dev_stop
                0xffff80000200e7b0                hhd_set_powerstus
                0xffff80000200e7c0                hhd_enum_dev
                0xffff80000200e7d0                hhd_handle
                0xffff80000200e7e0                drvhhd_entry
                0xffff80000200e9b0                drvhhd_exit
 *fill*         0xffff80000200e9bb        0x5 
 .text          0xffff80000200e9c0      0x5cb drvkeyboard.o
                0xffff80000200e9c0                keyboard_write
                0xffff80000200e9d0                keyboard_open
                0xffff80000200ea00                keyboard_close
                0xffff80000200ea30                keyboard_read
                0xffff80000200eb00                keyboard_handle
                0xffff80000200ebe0                keyboard_flush
                0xffff80000200ebf0                keyboard_shutdown
                0xffff80000200ec00                keyboard_lseek
                0xffff80000200ec10                keyboard_ioctrl
                0xffff80000200ec20                keyboard_dev_start
                0xffff80000200ec30                keyboard_set_powerstus
                0xffff80000200ec40                keyboard_enum_dev
                0xffff80000200ec50                keyboard_dev_stop
                0xffff80000200ec80                drvkeyboard_entry
                0xffff80000200ef80                drvkeyboard_exit
 .text          0xffff80000200ef8b        0x0 libassert.o
 .text          0xffff80000200ef8b        0x0 libctype.o
 .text          0xffff80000200ef8b        0x0 liberrno.o
 .text          0xffff80000200ef8b        0x0 libfloat.o
 .text          0xffff80000200ef8b        0x0 liblimits.o
 .text          0xffff80000200ef8b        0x0 liblocale.o
 .text          0xffff80000200ef8b        0x0 libmath.o
 .text          0xffff80000200ef8b        0x0 libsetjmp.o
 .text          0xffff80000200ef8b        0x0 libsignal.o
 .text          0xffff80000200ef8b        0x0 libstdarg.o
 .text          0xffff80000200ef8b        0x0 libstddef.o
 .text          0xffff80000200ef8b        0x0 libstdio.o
 .text          0xffff80000200ef8b        0x0 libstdlib.o
 .text          0xffff80000200ef8b        0x0 libstring.o
 *fill*         0xffff80000200ef8b        0x5 
 .text          0xffff80000200ef90       0x2f libtime.o
                0xffff80000200ef90                time
 *fill*         0xffff80000200efbf        0x1 
 .text          0xffff80000200efc0       0x21 libitime.o
                0xffff80000200efc0                sys_time
                0xffff80000200efe1                __end_text = .
                0xffff80000200efe1                __begin_spinlock_text = .

.iplt           0xffff80000200efe1        0x0 load address 0x000000000200efe1
 .iplt          0xffff80000200efe1        0x0 _string.o

.text.unlikely  0xffff80000200efe1       0x20 load address 0x000000000200efe1
 .text.unlikely
                0xffff80000200efe1       0x20 interrupt.o

.spinlock.text  0xffff80000200f004       0x14 load address 0x000000000200f004
 *(.spinlock.text)
 .spinlock.text
                0xffff80000200f004       0x14 spinlock.o
                0xffff80000200f018                __end_spinlock_text = .
                0xffff80000200f018                __begin_init_text = .

.init.text
 *(.init.text)
                0xffff80000200f018                __end_init_text = .
                0xffff80000200f018                __begin_driver_entry_text = .

.drventry.text
 *(.drventry.text)
                0xffff80000200f018                __end_driver_entry_text = .
                0xffff80000200f018                __begin_data = .

.data           0xffff80000200f018     0xcb78 load address 0x000000000200f018
 *(.data)
 .data          0xffff80000200f018        0x0 _string.o
 .data          0xffff80000200f018        0x0 _stdio.o
 .data          0xffff80000200f018        0x0 hal.o
 .data          0xffff80000200f018        0x8 vgastr.o
 .data          0xffff80000200f020        0x0 global.o
 .data          0xffff80000200f020        0x0 platform.o
 .data          0xffff80000200f020        0x0 gdt.o
 .data          0xffff80000200f020        0x0 idt.o
 .data          0xffff80000200f020        0x0 tss.o
 .data          0xffff80000200f020        0x0 i8259.o
 .data          0xffff80000200f020        0x0 interrupt.o
 .data          0xffff80000200f020        0x0 spinlock.o
 .data          0xffff80000200f020        0x0 remmu.o
 .data          0xffff80000200f020        0x0 mmu.o
 .data          0xffff80000200f020        0x0 memview.o
 .data          0xffff80000200f020        0x0 mempage.o
 .data          0xffff80000200f020        0x0 memtable.o
 .data          0xffff80000200f020        0x0 memarea.o
 .data          0xffff80000200f020        0x0 memobject.o
 .data          0xffff80000200f020        0x0 memmgr.o
 .data          0xffff80000200f020        0x0 memapi.o
 .data          0xffff80000200f020        0x0 kernel.o
 .data          0xffff80000200f020        0x0 knlglobal.o
 .data          0xffff80000200f020        0x0 kvmarea.o
 .data          0xffff80000200f020        0x0 kvmbox.o
 .data          0xffff80000200f020        0x0 kvmprocess.o
 .data          0xffff80000200f020        0x0 mempool.o
 .data          0xffff80000200f020        0x0 objnode.o
 .data          0xffff80000200f020        0x0 thread.o
 .data          0xffff80000200f020        0x0 schedule.o
 .data          0xffff80000200f020        0x0 waitlist.o
 .data          0xffff80000200f020        0x0 idle.o
 .data          0xffff80000200f020        0x0 sem.o
 .data          0xffff80000200f020        0x0 device.o
 .data          0xffff80000200f020        0x0 krlinterrupt.o
 .data          0xffff80000200f020        0x0 systime.o
 .data          0xffff80000200f020        0x0 syscall.o
 .data          0xffff80000200f020        0x0 service.o
 .data          0xffff80000200f020        0x0 drvtick.o
 .data          0xffff80000200f020        0x0 drvrfs.o
 .data          0xffff80000200f020        0x0 drvhhd.o
 .data          0xffff80000200f020        0x0 drvkeyboard.o
 .data          0xffff80000200f020        0x0 libassert.o
 .data          0xffff80000200f020        0x0 libctype.o
 .data          0xffff80000200f020        0x0 liberrno.o
 .data          0xffff80000200f020        0x0 libfloat.o
 .data          0xffff80000200f020        0x0 liblimits.o
 .data          0xffff80000200f020        0x0 liblocale.o
 .data          0xffff80000200f020        0x0 libmath.o
 .data          0xffff80000200f020        0x0 libsetjmp.o
 .data          0xffff80000200f020        0x0 libsignal.o
 .data          0xffff80000200f020        0x0 libstdarg.o
 .data          0xffff80000200f020        0x0 libstddef.o
 .data          0xffff80000200f020        0x0 libstdio.o
 .data          0xffff80000200f020        0x0 libstdlib.o
 .data          0xffff80000200f020        0x0 libstring.o
 .data          0xffff80000200f020        0x0 libtime.o
 .data          0xffff80000200f020        0x0 libitime.o
 *(.bss)
 .bss           0xffff80000200f020        0x0 _string.o
 .bss           0xffff80000200f020        0x0 _stdio.o
 .bss           0xffff80000200f020        0x0 hal.o
 .bss           0xffff80000200f020        0x0 vgastr.o
 .bss           0xffff80000200f020     0x81a0 global.o
                0xffff80000200f020                memmgr
                0xffff80000200fac0                x64tss
                0xffff80000200fe00                gdtr
                0xffff80000200fe60                gdt
                0xffff8000020100e0                intFaults
                0xffff8000020160e0                idtr
                0xffff800002016100                idt
                0xffff800002017100                machine
 .bss           0xffff8000020171c0        0x0 platform.o
 .bss           0xffff8000020171c0        0x0 gdt.o
 .bss           0xffff8000020171c0        0x0 idt.o
 .bss           0xffff8000020171c0        0x0 tss.o
 .bss           0xffff8000020171c0        0x0 i8259.o
 .bss           0xffff8000020171c0        0x0 interrupt.o
 .bss           0xffff8000020171c0        0x0 spinlock.o
 .bss           0xffff8000020171c0        0x0 remmu.o
 .bss           0xffff8000020171c0        0x0 mmu.o
 .bss           0xffff8000020171c0        0x0 memview.o
 .bss           0xffff8000020171c0        0x0 mempage.o
 .bss           0xffff8000020171c0        0x0 memtable.o
 .bss           0xffff8000020171c0        0x0 memarea.o
 .bss           0xffff8000020171c0        0x0 memobject.o
 .bss           0xffff8000020171c0        0x0 memmgr.o
 .bss           0xffff8000020171c0        0x0 memapi.o
 .bss           0xffff8000020171c0        0x0 kernel.o
 .bss           0xffff8000020171c0     0x4910 knlglobal.o
                0xffff8000020171c0                systime
                0xffff800002017200                devtable
                0xffff800002017660                mempool
                0xffff800002017740                scheclass
                0xffff80000201b960                kvmProcess
 .bss           0xffff80000201bad0        0x0 kvmarea.o
 .bss           0xffff80000201bad0        0x0 kvmbox.o
 .bss           0xffff80000201bad0        0x0 kvmprocess.o
 .bss           0xffff80000201bad0        0x0 mempool.o
 .bss           0xffff80000201bad0        0x0 objnode.o
 .bss           0xffff80000201bad0        0x0 thread.o
 .bss           0xffff80000201bad0        0x0 schedule.o
 .bss           0xffff80000201bad0        0x0 waitlist.o
 *fill*         0xffff80000201bad0       0x10 
 .bss           0xffff80000201bae0       0xb0 idle.o
 .bss           0xffff80000201bb90        0x0 sem.o
 .bss           0xffff80000201bb90        0x0 device.o
 .bss           0xffff80000201bb90        0x0 krlinterrupt.o
 .bss           0xffff80000201bb90        0x0 systime.o
 .bss           0xffff80000201bb90        0x0 syscall.o
 .bss           0xffff80000201bb90        0x0 service.o
 .bss           0xffff80000201bb90        0x0 drvtick.o
 .bss           0xffff80000201bb90        0x0 drvrfs.o
 .bss           0xffff80000201bb90        0x0 drvhhd.o
 .bss           0xffff80000201bb90        0x0 drvkeyboard.o
 .bss           0xffff80000201bb90        0x0 libassert.o
 .bss           0xffff80000201bb90        0x0 libctype.o
 .bss           0xffff80000201bb90        0x0 liberrno.o
 .bss           0xffff80000201bb90        0x0 libfloat.o
 .bss           0xffff80000201bb90        0x0 liblimits.o
 .bss           0xffff80000201bb90        0x0 liblocale.o
 .bss           0xffff80000201bb90        0x0 libmath.o
 .bss           0xffff80000201bb90        0x0 libsetjmp.o
 .bss           0xffff80000201bb90        0x0 libsignal.o
 .bss           0xffff80000201bb90        0x0 libstdarg.o
 .bss           0xffff80000201bb90        0x0 libstddef.o
 .bss           0xffff80000201bb90        0x0 libstdio.o
 .bss           0xffff80000201bb90        0x0 libstdlib.o
 .bss           0xffff80000201bb90        0x0 libstring.o
 .bss           0xffff80000201bb90        0x0 libtime.o
 .bss           0xffff80000201bb90        0x0 libitime.o
                0xffff80000201bb90                __end_data = .
                0xffff80000201bb90                __begin_rodata = .

.got            0xffff80000201bb90      0x220 load address 0x000000000201bb90
 .got           0xffff80000201bb90      0x220 _string.o

.got.plt        0xffff80000201bdb0       0x18 load address 0x000000000201bdb0
 .got.plt       0xffff80000201bdb0       0x18 _string.o
                0xffff80000201bdb0                _GLOBAL_OFFSET_TABLE_

.igot.plt       0xffff80000201bdc8        0x0 load address 0x000000000201bdc8
 .igot.plt      0xffff80000201bdc8        0x0 _string.o

.data.rel       0xffff80000201bde0       0x40 load address 0x000000000201bde0
 .data.rel      0xffff80000201bde0       0x40 knlglobal.o
                0xffff80000201bde0                osservicetab
                0xffff80000201be00                drventries

.rodata         0xffff80000201be20      0xe26 load address 0x000000000201be20
 *(.rodata)
 .rodata        0xffff80000201be20       0xd0 _stdio.o
 .rodata        0xffff80000201bef0       0x30 vgastr.o
 .rodata        0xffff80000201bf20      0x300 drvkeyboard.o
 *(.rodata.*)
 .rodata.str1.8
                0xffff80000201c220      0x10f hal.o
 .rodata.str1.1
                0xffff80000201c32f      0x1a4 platform.o
 .rodata.str1.1
                0xffff80000201c4d3       0xa8 interrupt.o
 *fill*         0xffff80000201c57b        0x5 
 .rodata.str1.8
                0xffff80000201c580       0x21 interrupt.o
 *fill*         0xffff80000201c5a1        0x7 
 .rodata.str1.8
                0xffff80000201c5a8       0x9f remmu.o
 .rodata.str1.1
                0xffff80000201c647       0x48 remmu.o
 .rodata.str1.1
                0xffff80000201c68f       0xb6 mmu.o
 .rodata.str1.1
                0xffff80000201c745       0x47 memview.o
                                         0x61 (size before relaxing)
 .rodata.str1.1
                0xffff80000201c78c       0x5a mempage.o
                                         0x7a (size before relaxing)
 .rodata.str1.1
                0xffff80000201c7e6        0xd memtable.o
                                          0xf (size before relaxing)
 *fill*         0xffff80000201c7f3        0x5 
 .rodata.str1.8
                0xffff80000201c7f8       0x1f memtable.o
 .rodata.str1.1
                0xffff80000201c817       0x14 memobject.o
 *fill*         0xffff80000201c82b        0x5 
 .rodata.str1.8
                0xffff80000201c830       0x22 kernel.o
 .rodata.str1.1
                0xffff80000201c852      0x16a kvmprocess.o
                                        0x171 (size before relaxing)
 .rodata.str1.1
                0xffff80000201c9bc       0x16 objnode.o
 .rodata.str1.1
                0xffff80000201c9d2       0x5b schedule.o
 *fill*         0xffff80000201ca2d        0x3 
 .rodata.str1.8
                0xffff80000201ca30       0x22 schedule.o
 .rodata.str1.1
                0xffff80000201ca52        0x5 waitlist.o
 .rodata.str1.1
                0xffff80000201ca57       0x59 idle.o
                                         0x61 (size before relaxing)
 .rodata.str1.1
                0xffff80000201cab0       0x11 sem.o
 .rodata.str1.1
                0xffff80000201cac1       0x27 device.o
                                         0x39 (size before relaxing)
 .rodata.str1.1
                0xffff80000201cae8       0x17 krlinterrupt.o
 .rodata.str1.1
                0xffff80000201caff       0x13 systime.o
 .rodata.str1.1
                0xffff80000201cb12        0x6 drvtick.o
                                          0xf (size before relaxing)
 .rodata.str1.1
                0xffff80000201cb18       0xd5 drvrfs.o
                                         0xf8 (size before relaxing)
 *fill*         0xffff80000201cbed        0x3 
 .rodata.str1.8
                0xffff80000201cbf0       0x2d drvrfs.o
 .rodata.str1.1
                0xffff80000201cc1d       0x29 drvkeyboard.o
                                         0x2d (size before relaxing)
                0xffff80000201cc46                __end_rodata = .
                0xffff80000201cc46                __begin_kstrtab = .

.eh_frame       0xffff80000201cc48     0x2b3c load address 0x000000000201cc48
 .eh_frame      0xffff80000201cc48       0x88 _string.o
 .eh_frame      0xffff80000201ccd0       0xf8 _stdio.o
                                        0x110 (size before relaxing)
 .eh_frame      0xffff80000201cdc8       0x30 hal.o
                                         0x48 (size before relaxing)
 .eh_frame      0xffff80000201cdf8       0xe0 vgastr.o
                                         0xf8 (size before relaxing)
 .eh_frame      0xffff80000201ced8       0x40 platform.o
                                         0x58 (size before relaxing)
 .eh_frame      0xffff80000201cf18       0x50 gdt.o
                                         0x68 (size before relaxing)
 .eh_frame      0xffff80000201cf68       0x28 idt.o
                                         0x40 (size before relaxing)
 .eh_frame      0xffff80000201cf90       0x28 tss.o
                                         0x40 (size before relaxing)
 .eh_frame      0xffff80000201cfb8       0xa8 i8259.o
                                         0xc0 (size before relaxing)
 .eh_frame      0xffff80000201d060      0x1f0 interrupt.o
                                        0x208 (size before relaxing)
 .eh_frame      0xffff80000201d250       0x90 spinlock.o
                                         0xa8 (size before relaxing)
 .eh_frame      0xffff80000201d2e0       0x48 remmu.o
                                         0x60 (size before relaxing)
 .eh_frame      0xffff80000201d328      0x248 mmu.o
                                        0x260 (size before relaxing)
 .eh_frame      0xffff80000201d570       0xa8 memview.o
                                         0xc0 (size before relaxing)
 .eh_frame      0xffff80000201d618       0xf8 mempage.o
                                        0x110 (size before relaxing)
 .eh_frame      0xffff80000201d710      0x130 memtable.o
                                        0x148 (size before relaxing)
 .eh_frame      0xffff80000201d840       0xb8 memarea.o
                                         0xd0 (size before relaxing)
 .eh_frame      0xffff80000201d8f8      0x120 memobject.o
                                        0x138 (size before relaxing)
 .eh_frame      0xffff80000201da18       0x48 memmgr.o
                                         0x60 (size before relaxing)
 .eh_frame      0xffff80000201da60      0x160 memapi.o
                                        0x178 (size before relaxing)
 .eh_frame      0xffff80000201dbc0       0x20 kernel.o
                                         0x38 (size before relaxing)
 .eh_frame      0xffff80000201dbe0      0x160 kvmarea.o
                                        0x178 (size before relaxing)
 .eh_frame      0xffff80000201dd40       0xf8 kvmbox.o
                                        0x110 (size before relaxing)
 .eh_frame      0xffff80000201de38      0x230 kvmprocess.o
                                        0x248 (size before relaxing)
 .eh_frame      0xffff80000201e068      0x150 mempool.o
                                        0x168 (size before relaxing)
 .eh_frame      0xffff80000201e1b8       0xa8 objnode.o
                                         0xc0 (size before relaxing)
 .eh_frame      0xffff80000201e260       0xb0 thread.o
                                         0xc8 (size before relaxing)
 .eh_frame      0xffff80000201e310      0x348 schedule.o
                                        0x360 (size before relaxing)
 .eh_frame      0xffff80000201e658      0x128 waitlist.o
                                        0x140 (size before relaxing)
 .eh_frame      0xffff80000201e780      0x150 idle.o
                                        0x168 (size before relaxing)
 .eh_frame      0xffff80000201e8d0       0xf8 sem.o
                                        0x110 (size before relaxing)
 .eh_frame      0xffff80000201e9c8      0x288 device.o
                                        0x2a0 (size before relaxing)
 .eh_frame      0xffff80000201ec50       0x80 krlinterrupt.o
                                         0x98 (size before relaxing)
 .eh_frame      0xffff80000201ecd0       0xe0 systime.o
                                         0xf8 (size before relaxing)
 .eh_frame      0xffff80000201edb0       0x18 service.o
                                         0x30 (size before relaxing)
 .eh_frame      0xffff80000201edc8      0x188 drvtick.o
                                        0x1a0 (size before relaxing)
 .eh_frame      0xffff80000201ef50      0x488 drvrfs.o
                                        0x4a0 (size before relaxing)
 .eh_frame      0xffff80000201f3d8      0x188 drvhhd.o
                                        0x1a0 (size before relaxing)
 .eh_frame      0xffff80000201f560      0x1e8 drvkeyboard.o
                                        0x200 (size before relaxing)
 .eh_frame      0xffff80000201f748       0x20 libtime.o
                                         0x38 (size before relaxing)
 .eh_frame      0xffff80000201f768       0x1c libitime.o
                                         0x38 (size before relaxing)

.rela.dyn       0xffff80000201f788        0x0 load address 0x000000000201f788
 .rela.got      0xffff80000201f788        0x0 _string.o
 .rela.iplt     0xffff80000201f788        0x0 _string.o

.kstrtab
 *(.kstrtab)
                0xffff80000201f784                __end_kstrtab = .
                0xffff80000201f784                __begin_apboot_text = .

.apboot.text
 *(.apboot.text)
                0xffff80000201f784                __end_apboot_text = .
                0xffff80000201f784                __begin_apboot_data = .

.apboot.data
 *(.apboot.data)
                0xffff80000201f784                __end_apboot_data = .
                0xffff80000201f784                __begin_kmodsattrb_data = .

.kmodsattrbdata
 *(.kmodsattrbdata)
                0xffff80000201f784                __end_kmodsattrb_data = .

.krnl.krnend
 *(.krnl.krnend)
                0xffff80000201f784                __end_kernel = .
LOAD _string.o
LOAD _stdio.o
LOAD _hal.o
LOAD hal.o
LOAD vgastr.o
LOAD global.o
LOAD platform.o
LOAD _isr.o
LOAD gdt.o
LOAD idt.o
LOAD tss.o
LOAD i8259.o
LOAD interrupt.o
LOAD spinlock.o
LOAD remmu.o
LOAD mmu.o
LOAD memview.o
LOAD mempage.o
LOAD memtable.o
LOAD memarea.o
LOAD memobject.o
LOAD memmgr.o
LOAD memapi.o
LOAD kernel.o
LOAD knlglobal.o
LOAD kvmarea.o
LOAD kvmbox.o
LOAD kvmprocess.o
LOAD mempool.o
LOAD objnode.o
LOAD thread.o
LOAD schedule.o
LOAD waitlist.o
LOAD idle.o
LOAD sem.o
LOAD device.o
LOAD krlinterrupt.o
LOAD systime.o
LOAD syscall.o
LOAD service.o
LOAD drvtick.o
LOAD drvrfs.o
LOAD drvhhd.o
LOAD drvkeyboard.o
LOAD libassert.o
LOAD libctype.o
LOAD liberrno.o
LOAD libfloat.o
LOAD liblimits.o
LOAD liblocale.o
LOAD libmath.o
LOAD libsetjmp.o
LOAD libsignal.o
LOAD libstdarg.o
LOAD libstddef.o
LOAD libstdio.o
LOAD libstdlib.o
LOAD libstring.o
LOAD libtime.o
LOAD libitime.o
OUTPUT(kernel.elf elf64-x86-64)

.note.GNU-stack
                0x0000000000000000        0x0
 .note.GNU-stack
                0x0000000000000000        0x0 _string.o
 .note.GNU-stack
                0x0000000000000000        0x0 _stdio.o
 .note.GNU-stack
                0x0000000000000000        0x0 hal.o
 .note.GNU-stack
                0x0000000000000000        0x0 vgastr.o
 .note.GNU-stack
                0x0000000000000000        0x0 global.o
 .note.GNU-stack
                0x0000000000000000        0x0 platform.o
 .note.GNU-stack
                0x0000000000000000        0x0 gdt.o
 .note.GNU-stack
                0x0000000000000000        0x0 idt.o
 .note.GNU-stack
                0x0000000000000000        0x0 tss.o
 .note.GNU-stack
                0x0000000000000000        0x0 i8259.o
 .note.GNU-stack
                0x0000000000000000        0x0 interrupt.o
 .note.GNU-stack
                0x0000000000000000        0x0 spinlock.o
 .note.GNU-stack
                0x0000000000000000        0x0 remmu.o
 .note.GNU-stack
                0x0000000000000000        0x0 mmu.o
 .note.GNU-stack
                0x0000000000000000        0x0 memview.o
 .note.GNU-stack
                0x0000000000000000        0x0 mempage.o
 .note.GNU-stack
                0x0000000000000000        0x0 memtable.o
 .note.GNU-stack
                0x0000000000000000        0x0 memarea.o
 .note.GNU-stack
                0x0000000000000000        0x0 memobject.o
 .note.GNU-stack
                0x0000000000000000        0x0 memmgr.o
 .note.GNU-stack
                0x0000000000000000        0x0 memapi.o
 .note.GNU-stack
                0x0000000000000000        0x0 kernel.o
 .note.GNU-stack
                0x0000000000000000        0x0 knlglobal.o
 .note.GNU-stack
                0x0000000000000000        0x0 kvmarea.o
 .note.GNU-stack
                0x0000000000000000        0x0 kvmbox.o
 .note.GNU-stack
                0x0000000000000000        0x0 kvmprocess.o
 .note.GNU-stack
                0x0000000000000000        0x0 mempool.o
 .note.GNU-stack
                0x0000000000000000        0x0 objnode.o
 .note.GNU-stack
                0x0000000000000000        0x0 thread.o
 .note.GNU-stack
                0x0000000000000000        0x0 schedule.o
 .note.GNU-stack
                0x0000000000000000        0x0 waitlist.o
 .note.GNU-stack
                0x0000000000000000        0x0 idle.o
 .note.GNU-stack
                0x0000000000000000        0x0 sem.o
 .note.GNU-stack
                0x0000000000000000        0x0 device.o
 .note.GNU-stack
                0x0000000000000000        0x0 krlinterrupt.o
 .note.GNU-stack
                0x0000000000000000        0x0 systime.o
 .note.GNU-stack
                0x0000000000000000        0x0 syscall.o
 .note.GNU-stack
                0x0000000000000000        0x0 service.o
 .note.GNU-stack
                0x0000000000000000        0x0 drvtick.o
 .note.GNU-stack
                0x0000000000000000        0x0 drvrfs.o
 .note.GNU-stack
                0x0000000000000000        0x0 drvhhd.o
 .note.GNU-stack
                0x0000000000000000        0x0 drvkeyboard.o
 .note.GNU-stack
                0x0000000000000000        0x0 libassert.o
 .note.GNU-stack
                0x0000000000000000        0x0 libctype.o
 .note.GNU-stack
                0x0000000000000000        0x0 liberrno.o
 .note.GNU-stack
                0x0000000000000000        0x0 libfloat.o
 .note.GNU-stack
                0x0000000000000000        0x0 liblimits.o
 .note.GNU-stack
                0x0000000000000000        0x0 liblocale.o
 .note.GNU-stack
                0x0000000000000000        0x0 libmath.o
 .note.GNU-stack
                0x0000000000000000        0x0 libsetjmp.o
 .note.GNU-stack
                0x0000000000000000        0x0 libsignal.o
 .note.GNU-stack
                0x0000000000000000        0x0 libstdarg.o
 .note.GNU-stack
                0x0000000000000000        0x0 libstddef.o
 .note.GNU-stack
                0x0000000000000000        0x0 libstdio.o
 .note.GNU-stack
                0x0000000000000000        0x0 libstdlib.o
 .note.GNU-stack
                0x0000000000000000        0x0 libstring.o
 .note.GNU-stack
                0x0000000000000000        0x0 libtime.o
 .note.GNU-stack
                0x0000000000000000        0x0 libitime.o
