
Merging program properties

Removed property 0xc0000002 to merge grub.o (0x3) and _grub.o (not found)
Removed property 0xc0000002 to merge grub.o (not found) and vgastr.o (0x3)
Removed property 0xc0000002 to merge grub.o (not found) and string.o (0x3)
Removed property 0xc0000002 to merge grub.o (not found) and stdio.o (0x3)
Removed property 0xc0000002 to merge grub.o (not found) and image.o (0x3)
Removed property 0xc0000002 to merge grub.o (not found) and utils.o (0x3)
Removed property 0xc0000002 to merge grub.o (not found) and allocate.o (0x3)

Discarded input sections

 .group         0x0000000000000000        0x8 grub.o
 .note.gnu.property
                0x0000000000000000       0x1c grub.o
 .group         0x0000000000000000        0x8 vgastr.o
 .group         0x0000000000000000        0x8 vgastr.o
 .text.__x86.get_pc_thunk.bx
                0x0000000000000000        0x4 vgastr.o
 .note.gnu.property
                0x0000000000000000       0x1c vgastr.o
 .note.gnu.property
                0x0000000000000000       0x1c string.o
 .group         0x0000000000000000        0x8 stdio.o
 .group         0x0000000000000000        0x8 stdio.o
 .group         0x0000000000000000        0x8 stdio.o
 .text.__x86.get_pc_thunk.bx
                0x0000000000000000        0x4 stdio.o
 .note.gnu.property
                0x0000000000000000       0x1c stdio.o
 .group         0x0000000000000000        0x8 image.o
 .text.__x86.get_pc_thunk.bx
                0x0000000000000000        0x4 image.o
 .note.gnu.property
                0x0000000000000000       0x1c image.o
 .group         0x0000000000000000        0x8 utils.o
 .group         0x0000000000000000        0x8 utils.o
 .text.__x86.get_pc_thunk.ax
                0x0000000000000000        0x4 utils.o
 .text.__x86.get_pc_thunk.bx
                0x0000000000000000        0x4 utils.o
 .note.gnu.property
                0x0000000000000000       0x1c utils.o
 .group         0x0000000000000000        0x8 allocate.o
 .group         0x0000000000000000        0x8 allocate.o
 .group         0x0000000000000000        0x8 allocate.o
 .group         0x0000000000000000        0x8 allocate.o
 .text.__x86.get_pc_thunk.ax
                0x0000000000000000        0x4 allocate.o
 .text.__x86.get_pc_thunk.bx
                0x0000000000000000        0x4 allocate.o
 .text.__x86.get_pc_thunk.si
                0x0000000000000000        0x4 allocate.o
 .note.gnu.property
                0x0000000000000000       0x1c allocate.o

Memory Configuration

Name             Origin             Length             Attributes
*default*        0x0000000000000000 0xffffffffffffffff

Linker script and memory map

                0x0000000004000000                . = 0x4000000
                0x0000000004000000                __start_ldr = .
                0x0000000004000000                __begin_start_text = .

.start.text     0x0000000004000000       0xda
 *(.start.text)
 .start.text    0x0000000004000000       0xda _grub.o
                0x0000000004000000                _start
                0x00000000040000da                __end_start_text = .
                0x00000000040000da                __begin_text = .

.text           0x00000000040000dc      0xed2
 *(.text)
 .text          0x00000000040000dc      0x136 grub.o
                0x0000000004000150                grub_entry
 .text          0x0000000004000212      0x1f1 vgastr.o
                0x0000000004000212                init_cursor
                0x0000000004000235                close_cursor
                0x000000000400024a                open_cursor
                0x000000000400024f                set_cursor
                0x00000000040002a2                clear_screen
                0x00000000040002ca                scroll_screen
                0x00000000040002fe                write_string
 .text          0x0000000004000403       0x8a string.o
                0x0000000004000403                strcmp
                0x0000000004000429                strcpy
                0x0000000004000449                strlen
                0x000000000400045d                strcat
 .text          0x000000000400048d      0x33a stdio.o
                0x0000000004000731                sscank
                0x0000000004000747                scank
                0x000000000400076d                sprintk
                0x0000000004000785                printk
 .text          0x00000000040007c7      0x273 image.o
                0x00000000040007c7                image_display
                0x000000000400093f                get_file
                0x0000000004000a08                get_image_file
 .text          0x0000000004000a3a      0x1a0 utils.o
                0x0000000004000a3a                die
                0x0000000004000a98                utf_to_unicode
                0x0000000004000aa1                unicode_to_utf8
                0x0000000004000aaa                checksum_crc32
                0x0000000004000ae5                checksum_crc64
                0x0000000004000b78                error
                0x0000000004000baa                warning
 .text          0x0000000004000bda      0x3d4 allocate.o
                0x0000000004000d3d                allocate_init
                0x0000000004000d6d                allocate_display
                0x0000000004000e3c                allocate
                0x0000000004000ed8                reserve
                0x0000000004000f23                release
                0x0000000004000fae                __end_text = .
                0x0000000004000fae                __begin_data = .

.iplt           0x0000000004000fae        0x0
 .iplt          0x0000000004000fae        0x0 _grub.o

.text.__x86.get_pc_thunk.bx
                0x0000000004000fae        0x4
 .text.__x86.get_pc_thunk.bx
                0x0000000004000fae        0x4 grub.o
                0x0000000004000fae                __x86.get_pc_thunk.bx

.text.__x86.get_pc_thunk.ax
                0x0000000004000fb2        0x4
 .text.__x86.get_pc_thunk.ax
                0x0000000004000fb2        0x4 vgastr.o
                0x0000000004000fb2                __x86.get_pc_thunk.ax

.text.__x86.get_pc_thunk.si
                0x0000000004000fb6        0x4
 .text.__x86.get_pc_thunk.si
                0x0000000004000fb6        0x4 stdio.o
                0x0000000004000fb6                __x86.get_pc_thunk.si

.text.__x86.get_pc_thunk.bp
                0x0000000004000fba        0x4
 .text.__x86.get_pc_thunk.bp
                0x0000000004000fba        0x4 stdio.o
                0x0000000004000fba                __x86.get_pc_thunk.bp

.text.__x86.get_pc_thunk.cx
                0x0000000004000fbe        0x4
 .text.__x86.get_pc_thunk.cx
                0x0000000004000fbe        0x4 allocate.o
                0x0000000004000fbe                __x86.get_pc_thunk.cx

.data           0x0000000004000fc4       0x10
 *(.data)
 .data          0x0000000004000fc4        0x0 grub.o
 .data          0x0000000004000fc4        0x8 vgastr.o
 .data          0x0000000004000fcc        0x0 string.o
 .data          0x0000000004000fcc        0x0 stdio.o
 .data          0x0000000004000fcc        0x0 image.o
 .data          0x0000000004000fcc        0x0 utils.o
 .data          0x0000000004000fcc        0x8 allocate.o
                0x0000000004000fd4                __end_data = .
                0x0000000004000fd4                __begin_rodata = .

.got            0x0000000004000fd4        0x0
 .got           0x0000000004000fd4        0x0 _grub.o

.got.plt        0x0000000004000fd4        0xc
 .got.plt       0x0000000004000fd4        0xc _grub.o
                0x0000000004000fd4                _GLOBAL_OFFSET_TABLE_

.igot.plt       0x0000000004000fe0        0x0
 .igot.plt      0x0000000004000fe0        0x0 _grub.o

.rodata         0x0000000004000fe0      0x32a
 *(.rodata)
 .rodata        0x0000000004000fe0       0x18 vgastr.o
 .rodata        0x0000000004000ff8       0x48 stdio.o
 .rodata        0x0000000004001040       0x30 utils.o
 *(.rodata.*)
 .rodata.str1.1
                0x0000000004001070       0xfe grub.o
 .rodata.str1.1
                0x000000000400116e       0x11 stdio.o
 .rodata.str1.1
                0x000000000400117f      0x15f image.o
                                        0x165 (size before relaxing)
 .rodata.str1.1
                0x00000000040012de       0x2c allocate.o
                                         0x3f (size before relaxing)
                0x000000000400130a                __end_rodata = .
                0x000000000400130a                __begin_kstrtab = .

.eh_frame       0x000000000400130c      0x7e4
 .eh_frame      0x000000000400130c       0xc8 grub.o
 .eh_frame      0x00000000040013d4       0xf8 vgastr.o
                                        0x124 (size before relaxing)
 .eh_frame      0x00000000040014cc       0x60 string.o
                                         0x78 (size before relaxing)
 .eh_frame      0x000000000400152c      0x178 stdio.o
                                        0x1a4 (size before relaxing)
 .eh_frame      0x00000000040016a4      0x190 image.o
                                        0x1bc (size before relaxing)
 .eh_frame      0x0000000004001834       0xf8 utils.o
                                        0x138 (size before relaxing)
 .eh_frame      0x000000000400192c      0x1c4 allocate.o
                                        0x218 (size before relaxing)

.rel.dyn        0x0000000004001af0        0x0
 .rel.got       0x0000000004001af0        0x0 _grub.o
 .rel.iplt      0x0000000004001af0        0x0 _grub.o

.kstrtab
 *(.kstrtab)
                0x0000000004001af0                __end_kstrtab = .
                0x0000000004001af0                __begin_bss = .

.bss            0x0000000004001af0        0x4
 *(.bss)
 .bss           0x0000000004001af0        0x0 grub.o
 .bss           0x0000000004001af0        0x0 vgastr.o
 .bss           0x0000000004001af0        0x0 string.o
 .bss           0x0000000004001af0        0x0 stdio.o
 .bss           0x0000000004001af0        0x0 image.o
 .bss           0x0000000004001af0        0x0 utils.o
 .bss           0x0000000004001af0        0x4 allocate.o
                0x0000000004001af4                __end_bss = .
                0x0000000004001af4                __end_ldr = .
LOAD _grub.o
LOAD grub.o
LOAD vgastr.o
LOAD string.o
LOAD stdio.o
LOAD image.o
LOAD utils.o
LOAD allocate.o
OUTPUT(grub.elf elf32-i386)

.note.GNU-stack
                0x0000000000000000        0x0
 .note.GNU-stack
                0x0000000000000000        0x0 grub.o
 .note.GNU-stack
                0x0000000000000000        0x0 vgastr.o
 .note.GNU-stack
                0x0000000000000000        0x0 string.o
 .note.GNU-stack
                0x0000000000000000        0x0 stdio.o
 .note.GNU-stack
                0x0000000000000000        0x0 image.o
 .note.GNU-stack
                0x0000000000000000        0x0 utils.o
 .note.GNU-stack
                0x0000000000000000        0x0 allocate.o
