
Merging program properties

Removed property 0xc0000002 to merge loader.o (0x3) and _loader.o (not found)
Removed property 0xc0000002 to merge loader.o (not found) and mmu.o (0x3)
Removed property 0xc0000002 to merge loader.o (not found) and vgastr.o (0x3)
Removed property 0xc0000002 to merge loader.o (not found) and graph.o (0x3)
Removed property 0xc0000002 to merge loader.o (not found) and cpu.o (0x3)
Removed property 0xc0000002 to merge loader.o (not found) and disk.o (0x3)
Removed property 0xc0000002 to merge loader.o (not found) and acpi.o (0x3)
Removed property 0xc0000002 to merge loader.o (not found) and e820.o (0x3)
Removed property 0xc0000002 to merge loader.o (not found) and machine.o (0x3)
Removed property 0xc0000002 to merge loader.o (not found) and image.o (0x3)
Removed property 0xc0000002 to merge loader.o (not found) and stdio.o (0x3)
Removed property 0xc0000002 to merge loader.o (not found) and string.o (0x3)
Removed property 0xc0000002 to merge loader.o (not found) and utils.o (0x3)

Discarded input sections

 .group         0x0000000000000000        0x8 loader.o
 .note.gnu.property
                0x0000000000000000       0x1c loader.o
 .group         0x0000000000000000        0x8 mmu.o
 .text.__x86.get_pc_thunk.bx
                0x0000000000000000        0x4 mmu.o
 .note.gnu.property
                0x0000000000000000       0x1c mmu.o
 .group         0x0000000000000000        0x8 vgastr.o
 .group         0x0000000000000000        0x8 vgastr.o
 .text.__x86.get_pc_thunk.bx
                0x0000000000000000        0x4 vgastr.o
 .note.gnu.property
                0x0000000000000000       0x1c vgastr.o
 .group         0x0000000000000000        0x8 graph.o
 .text.__x86.get_pc_thunk.bx
                0x0000000000000000        0x4 graph.o
 .note.gnu.property
                0x0000000000000000       0x1c graph.o
 .group         0x0000000000000000        0x8 cpu.o
 .group         0x0000000000000000        0x8 cpu.o
 .text.__x86.get_pc_thunk.bx
                0x0000000000000000        0x4 cpu.o
 .note.gnu.property
                0x0000000000000000       0x1c cpu.o
 .group         0x0000000000000000        0x8 disk.o
 .text.__x86.get_pc_thunk.bx
                0x0000000000000000        0x4 disk.o
 .note.gnu.property
                0x0000000000000000       0x1c disk.o
 .group         0x0000000000000000        0x8 acpi.o
 .text.__x86.get_pc_thunk.bx
                0x0000000000000000        0x4 acpi.o
 .note.gnu.property
                0x0000000000000000       0x1c acpi.o
 .group         0x0000000000000000        0x8 e820.o
 .text.__x86.get_pc_thunk.bx
                0x0000000000000000        0x4 e820.o
 .note.gnu.property
                0x0000000000000000       0x1c e820.o
 .group         0x0000000000000000        0x8 machine.o
 .text.__x86.get_pc_thunk.bx
                0x0000000000000000        0x4 machine.o
 .note.gnu.property
                0x0000000000000000       0x1c machine.o
 .group         0x0000000000000000        0x8 image.o
 .text.__x86.get_pc_thunk.bx
                0x0000000000000000        0x4 image.o
 .note.gnu.property
                0x0000000000000000       0x1c image.o
 .group         0x0000000000000000        0x8 stdio.o
 .group         0x0000000000000000        0x8 stdio.o
 .group         0x0000000000000000        0x8 stdio.o
 .text.__x86.get_pc_thunk.bx
                0x0000000000000000        0x4 stdio.o
 .text.__x86.get_pc_thunk.bp
                0x0000000000000000        0x4 stdio.o
 .note.gnu.property
                0x0000000000000000       0x1c stdio.o
 .note.gnu.property
                0x0000000000000000       0x1c string.o
 .group         0x0000000000000000        0x8 utils.o
 .group         0x0000000000000000        0x8 utils.o
 .text.__x86.get_pc_thunk.ax
                0x0000000000000000        0x4 utils.o
 .text.__x86.get_pc_thunk.bx
                0x0000000000000000        0x4 utils.o
 .note.gnu.property
                0x0000000000000000       0x1c utils.o

Memory Configuration

Name             Origin             Length             Attributes
*default*        0x0000000000000000 0xffffffffffffffff

Linker script and memory map

                0x0000000000200000                . = 0x200000
                0x0000000000200000                __start_ldr = .
                0x0000000000200000                __begin_start_text = .

.start.text
 *(.start.text)
                0x0000000000200000                __end_start_text = .
                0x0000000000200000                __begin_text = .

.text           0x0000000000200000     0x170d
 *(.text)
 .text          0x0000000000200000       0xaa _loader.o
                0x0000000000200000                _start
                0x0000000000200047                realadr_call_entry
 .text          0x00000000002000aa       0x90 loader.o
                0x00000000002000aa                pause
                0x00000000002000bc                loader_entry
 .text          0x000000000020013a      0x161 mmu.o
                0x000000000020013a                mmu_init
                0x000000000020021e                mmu_display
 .text          0x000000000020029b      0x1f1 vgastr.o
                0x000000000020029b                init_cursor
                0x00000000002002be                close_cursor
                0x00000000002002d3                open_cursor
                0x00000000002002d8                set_cursor
                0x000000000020032b                clear_screen
                0x0000000000200353                scroll_screen
                0x0000000000200387                write_string
 .text          0x000000000020048c       0x37 graph.o
                0x000000000020048c                graph_init
                0x0000000000200491                graph_display
 .text          0x00000000002004c3       0xed cpu.o
                0x00000000002004c3                cpu_init
                0x0000000000200567                cpu_display
 .text          0x00000000002005b0       0x37 disk.o
                0x00000000002005b0                disk_init
                0x00000000002005b5                disk_display
 .text          0x00000000002005e7       0x37 acpi.o
                0x00000000002005e7                acpi_init
                0x00000000002005ec                acpi_display
 .text          0x000000000020061e      0x1ea e820.o
                0x000000000020061e                e820_init
                0x000000000020074f                e820_display
 .text          0x0000000000200808      0x70e machine.o
                0x000000000020083a                machine_init
                0x0000000000200d62                machine_display
 .text          0x0000000000200f16      0x293 image.o
                0x0000000000200f16                image_display
                0x000000000020109f                get_file
                0x0000000000201168                get_image_file
                0x000000000020119a                get_image_size
 .text          0x00000000002011a9      0x33a stdio.o
                0x000000000020144d                sscank
                0x0000000000201463                scank
                0x0000000000201489                sprintk
                0x00000000002014a1                printk
 .text          0x00000000002014e3       0x8a string.o
                0x00000000002014e3                strcmp
                0x0000000000201509                strcpy
                0x0000000000201529                strlen
                0x000000000020153d                strcat
 .text          0x000000000020156d      0x1a0 utils.o
                0x000000000020156d                die
                0x00000000002015cb                utf_to_unicode
                0x00000000002015d4                unicode_to_utf8
                0x00000000002015dd                checksum_crc32
                0x0000000000201618                checksum_crc64
                0x00000000002016ab                error
                0x00000000002016dd                warning
                0x000000000020170d                __end_text = .
                0x000000000020170d                __begin_data = .

.iplt           0x000000000020170d        0x0
 .iplt          0x000000000020170d        0x0 _loader.o

.text.__x86.get_pc_thunk.bx
                0x000000000020170d        0x4
 .text.__x86.get_pc_thunk.bx
                0x000000000020170d        0x4 loader.o
                0x000000000020170d                __x86.get_pc_thunk.bx

.text.__x86.get_pc_thunk.ax
                0x0000000000201711        0x4
 .text.__x86.get_pc_thunk.ax
                0x0000000000201711        0x4 vgastr.o
                0x0000000000201711                __x86.get_pc_thunk.ax

.text.__x86.get_pc_thunk.bp
                0x0000000000201715        0x4
 .text.__x86.get_pc_thunk.bp
                0x0000000000201715        0x4 cpu.o
                0x0000000000201715                __x86.get_pc_thunk.bp

.text.__x86.get_pc_thunk.si
                0x0000000000201719        0x4
 .text.__x86.get_pc_thunk.si
                0x0000000000201719        0x4 stdio.o
                0x0000000000201719                __x86.get_pc_thunk.si

.data           0x0000000000201720        0x8
 *(.data)
 .data          0x0000000000201720        0x0 loader.o
 .data          0x0000000000201720        0x0 mmu.o
 .data          0x0000000000201720        0x8 vgastr.o
 .data          0x0000000000201728        0x0 graph.o
 .data          0x0000000000201728        0x0 cpu.o
 .data          0x0000000000201728        0x0 disk.o
 .data          0x0000000000201728        0x0 acpi.o
 .data          0x0000000000201728        0x0 e820.o
 .data          0x0000000000201728        0x0 machine.o
 .data          0x0000000000201728        0x0 image.o
 .data          0x0000000000201728        0x0 stdio.o
 .data          0x0000000000201728        0x0 string.o
 .data          0x0000000000201728        0x0 utils.o
                0x0000000000201728                __end_data = .
                0x0000000000201728                __begin_rodata = .

.got            0x0000000000201728        0x0
 .got           0x0000000000201728        0x0 _loader.o

.got.plt        0x0000000000201728        0xc
 .got.plt       0x0000000000201728        0xc _loader.o
                0x0000000000201728                _GLOBAL_OFFSET_TABLE_

.igot.plt       0x0000000000201734        0x0
 .igot.plt      0x0000000000201734        0x0 _loader.o

.rodata         0x0000000000201734      0xcf4
 *(.rodata)
 .rodata        0x0000000000201734       0x18 vgastr.o
 .rodata        0x000000000020174c       0x48 stdio.o
 .rodata        0x0000000000201794       0x30 utils.o
 *(.rodata.*)
 .rodata.str1.1
                0x00000000002017c4       0x9c loader.o
                                         0x9d (size before relaxing)
 .rodata.str1.1
                0x0000000000201860       0xe6 mmu.o
 .rodata.str1.1
                0x0000000000201946       0x9e graph.o
 .rodata.str1.1
                0x00000000002019e4      0x120 cpu.o
 .rodata.str1.1
                0x0000000000201b04       0x9e disk.o
 .rodata.str1.1
                0x0000000000201ba2       0x9e acpi.o
 .rodata.str1.1
                0x0000000000201c40      0x11c e820.o
                                        0x133 (size before relaxing)
 .rodata.str1.1
                0x0000000000201d5c      0x550 machine.o
                                        0x560 (size before relaxing)
 .rodata.str1.1
                0x00000000002022ac      0x16b image.o
                                        0x171 (size before relaxing)
 .rodata.str1.1
                0x0000000000202417       0x11 stdio.o
                0x0000000000202428                __end_rodata = .
                0x0000000000202428                __begin_kstrtab = .

.eh_frame       0x0000000000202428      0xaec
 .eh_frame      0x0000000000202428       0x80 loader.o
 .eh_frame      0x00000000002024a8       0x84 mmu.o
                                         0xb0 (size before relaxing)
 .eh_frame      0x000000000020252c       0xf8 vgastr.o
                                        0x124 (size before relaxing)
 .eh_frame      0x0000000000202624       0x38 graph.o
                                         0x64 (size before relaxing)
 .eh_frame      0x000000000020265c       0x94 cpu.o
                                         0xc0 (size before relaxing)
 .eh_frame      0x00000000002026f0       0x38 disk.o
                                         0x64 (size before relaxing)
 .eh_frame      0x0000000000202728       0x38 acpi.o
                                         0x64 (size before relaxing)
 .eh_frame      0x0000000000202760       0xd4 e820.o
                                        0x100 (size before relaxing)
 .eh_frame      0x0000000000202834      0x274 machine.o
                                        0x2a0 (size before relaxing)
 .eh_frame      0x0000000000202aa8      0x1b0 image.o
                                        0x1dc (size before relaxing)
 .eh_frame      0x0000000000202c58      0x164 stdio.o
                                        0x1a4 (size before relaxing)
 .eh_frame      0x0000000000202dbc       0x60 string.o
                                         0x78 (size before relaxing)
 .eh_frame      0x0000000000202e1c       0xf8 utils.o
                                        0x138 (size before relaxing)

.rel.dyn        0x0000000000202f14        0x0
 .rel.got       0x0000000000202f14        0x0 _loader.o
 .rel.iplt      0x0000000000202f14        0x0 _loader.o

.kstrtab
 *(.kstrtab)
                0x0000000000202f14                __end_kstrtab = .
                0x0000000000202f14                __begin_bss = .

.bss            0x0000000000202f14        0x0
 *(.bss)
 .bss           0x0000000000202f14        0x0 loader.o
 .bss           0x0000000000202f14        0x0 mmu.o
 .bss           0x0000000000202f14        0x0 vgastr.o
 .bss           0x0000000000202f14        0x0 graph.o
 .bss           0x0000000000202f14        0x0 cpu.o
 .bss           0x0000000000202f14        0x0 disk.o
 .bss           0x0000000000202f14        0x0 acpi.o
 .bss           0x0000000000202f14        0x0 e820.o
 .bss           0x0000000000202f14        0x0 machine.o
 .bss           0x0000000000202f14        0x0 image.o
 .bss           0x0000000000202f14        0x0 stdio.o
 .bss           0x0000000000202f14        0x0 string.o
 .bss           0x0000000000202f14        0x0 utils.o
                0x0000000000202f14                __end_bss = .
                0x0000000000202f14                __end_ldr = .
LOAD _loader.o
LOAD loader.o
LOAD mmu.o
LOAD vgastr.o
LOAD graph.o
LOAD cpu.o
LOAD disk.o
LOAD acpi.o
LOAD e820.o
LOAD machine.o
LOAD image.o
LOAD stdio.o
LOAD string.o
LOAD utils.o
OUTPUT(loader.elf elf32-i386)

.note.GNU-stack
                0x0000000000000000        0x0
 .note.GNU-stack
                0x0000000000000000        0x0 loader.o
 .note.GNU-stack
                0x0000000000000000        0x0 mmu.o
 .note.GNU-stack
                0x0000000000000000        0x0 vgastr.o
 .note.GNU-stack
                0x0000000000000000        0x0 graph.o
 .note.GNU-stack
                0x0000000000000000        0x0 cpu.o
 .note.GNU-stack
                0x0000000000000000        0x0 disk.o
 .note.GNU-stack
                0x0000000000000000        0x0 acpi.o
 .note.GNU-stack
                0x0000000000000000        0x0 e820.o
 .note.GNU-stack
                0x0000000000000000        0x0 machine.o
 .note.GNU-stack
                0x0000000000000000        0x0 image.o
 .note.GNU-stack
                0x0000000000000000        0x0 stdio.o
 .note.GNU-stack
                0x0000000000000000        0x0 string.o
 .note.GNU-stack
                0x0000000000000000        0x0 utils.o
